; Function Attrs: nounwind uwtable
define noalias nonnull ptr @l_Lean_Elab_mkMessageCore___boxed(ptr noundef %0, ptr noundef %1, ptr noundef %2, ptr noundef %3, ptr noundef %4, ptr noundef %5) local_unnamed_addr #0 {
  %7 = ptrtoint ptr %3 to i64
  %8 = lshr i64 %7, 1
  %9 = trunc i64 %8 to i8
  %10 = and i64 %7, 1
  %.not = icmp eq i64 %10, 0
  br i1 %.not, label %11, label %lean_dec.exit11

11:                                               ; preds = %6
  %12 = load i32, ptr %3, align 4, !tbaa !8
  %13 = icmp sgt i32 %12, 1
  br i1 %13, label %14, label %16, !prof !11

14:                                               ; preds = %11
  %15 = add nsw i32 %12, -1
  store i32 %15, ptr %3, align 4, !tbaa !8
  br label %lean_dec.exit11

16:                                               ; preds = %11
  %.not.i = icmp eq i32 %12, 0
  br i1 %.not.i, label %lean_dec.exit11, label %17

17:                                               ; preds = %16
  tail call void @lean_dec_ref_cold(ptr noundef nonnull %3) #3
  br label %lean_dec.exit11

lean_dec.exit11:                                  ; preds = %17, %16, %14, %6
  %18 = tail call ptr @l_Lean_Elab_mkMessageCore(ptr noundef %0, ptr noundef %1, ptr noundef %2, i8 noundef zeroext %9, ptr noundef %4, ptr noundef %5)
  %19 = ptrtoint ptr %5 to i64
  %20 = and i64 %19, 1
  %.not16 = icmp eq i64 %20, 0
  br i1 %.not16, label %21, label %lean_dec.exit10

21:                                               ; preds = %lean_dec.exit11
  %22 = load i32, ptr %5, align 4, !tbaa !8
  %23 = icmp sgt i32 %22, 1
  br i1 %23, label %24, label %26, !prof !11

24:                                               ; preds = %21
  %25 = add nsw i32 %22, -1
  store i32 %25, ptr %5, align 4, !tbaa !8
  br label %lean_dec.exit10

26:                                               ; preds = %21
  %.not.i12 = icmp eq i32 %22, 0
  br i1 %.not.i12, label %lean_dec.exit10, label %27

27:                                               ; preds = %26
  tail call void @lean_dec_ref_cold(ptr noundef nonnull %5) #3
  br label %lean_dec.exit10

lean_dec.exit10:                                  ; preds = %27, %26, %24, %lean_dec.exit11
  %28 = ptrtoint ptr %4 to i64
  %29 = and i64 %28, 1
  %.not17 = icmp eq i64 %29, 0
  br i1 %.not17, label %30, label %lean_dec.exit

30:                                               ; preds = %lean_dec.exit10
  %31 = load i32, ptr %4, align 4, !tbaa !8
  %32 = icmp sgt i32 %31, 1
  br i1 %32, label %33, label %35, !prof !11

33:                                               ; preds = %30
  %34 = add nsw i32 %31, -1
  store i32 %34, ptr %4, align 4, !tbaa !8
  br label %lean_dec.exit

35:                                               ; preds = %30
  %.not.i14 = icmp eq i32 %31, 0
  br i1 %.not.i14, label %lean_dec.exit, label %36

36:                                               ; preds = %35
  tail call void @lean_dec_ref_cold(ptr noundef nonnull %4) #3
  br label %lean_dec.exit

lean_dec.exit:                                    ; preds = %36, %35, %33, %lean_dec.exit10
  ret ptr %18
}